; Function Attrs: mustprogress uwtable
define void @_ZNK7Imf_2_514TypedAttributeINS_4BlobEE12writeValueToERNS_7OStreamEi(ptr noundef nonnull readonly align 8 captures(none) dereferenceable(32) %0, ptr noundef nonnull align 8 dereferenceable(40) %1, i32 noundef %2) unnamed_addr #4 align 2 {
  %4 = alloca [4 x i8], align 1
  %5 = getelementptr inbounds nuw i8, ptr %0, i64 8
  %6 = load i32, ptr %5, align 8, !tbaa !6
  call void @llvm.lifetime.start.p0(i64 4, ptr nonnull %4) #24
  %7 = trunc i32 %6 to i8
  store i8 %7, ptr %4, align 1, !tbaa !19
  %8 = lshr i32 %6, 8
  %9 = trunc i32 %8 to i8
  %10 = getelementptr inbounds nuw i8, ptr %4, i64 1
  store i8 %9, ptr %10, align 1, !tbaa !19
  %11 = lshr i32 %6, 16
  %12 = trunc i32 %11 to i8
  %13 = getelementptr inbounds nuw i8, ptr %4, i64 2
  store i8 %12, ptr %13, align 1, !tbaa !19
  %14 = lshr i32 %6, 24
  %15 = trunc nuw i32 %14 to i8
  %16 = getelementptr inbounds nuw i8, ptr %4, i64 3
  store i8 %15, ptr %16, align 1, !tbaa !19
  %17 = load ptr, ptr %1, align 8, !tbaa !20
  %18 = getelementptr inbounds nuw i8, ptr %17, i64 16
  %19 = load ptr, ptr %18, align 8
  call void %19(ptr noundef nonnull align 8 dereferenceable(40) %1, ptr noundef nonnull %4, i32 noundef 4)
  call void @llvm.lifetime.end.p0(i64 4, ptr nonnull %4) #24
  %20 = getelementptr inbounds nuw i8, ptr %0, i64 16
  %21 = load ptr, ptr %20, align 8, !tbaa !22
  %22 = load i32, ptr %5, align 8, !tbaa !6
  %23 = load ptr, ptr %1, align 8, !tbaa !20
  %24 = getelementptr inbounds nuw i8, ptr %23, i64 16
  %25 = load ptr, ptr %24, align 8
  call void %25(ptr noundef nonnull align 8 dereferenceable(40) %1, ptr noundef %21, i32 noundef %22)
  ret void
}